target datalayout = "e-m:e-p270:32:32-p271:32:32-p272:64:64-i64:64-i128:128-f80:128-n8:16:32:64-S128"
target triple = "x86_64-pc-linux-gnu"

; Function Attrs: nounwind uwtable
define i64 @cli_strtokenize(ptr noundef %0, i8 noundef signext %1, i64 noundef %2, ptr noundef %3) #0 {
  %5 = alloca i64, align 8
  %6 = alloca ptr, align 8
  %7 = alloca i8, align 1
  %8 = alloca i64, align 8
  %9 = alloca ptr, align 8
  %10 = alloca i64, align 8
  %11 = alloca i64, align 8
  store ptr %0, ptr %6, align 8
  store i8 %1, ptr %7, align 1
  store i64 %2, ptr %8, align 8
  store ptr %3, ptr %9, align 8
  store i64 0, ptr %10, align 8
  br label %12

12:                                               ; preds = %44, %4
  %13 = load i64, ptr %10, align 8
  %14 = load i64, ptr %8, align 8
  %15 = icmp ult i64 %13, %14
  br i1 %15, label %16, label %45

16:                                               ; preds = %12
  %17 = load ptr, ptr %6, align 8
  %18 = load ptr, ptr %9, align 8
  %19 = load i64, ptr %10, align 8
  %20 = add i64 %19, 1
  store i64 %20, ptr %10, align 8
  %21 = getelementptr inbounds ptr, ptr %18, i64 %19
  store ptr %17, ptr %21, align 8
  %22 = load ptr, ptr %6, align 8
  %23 = load i8, ptr %7, align 1
  %24 = sext i8 %23 to i32
  %25 = call ptr @strchr(ptr noundef %22, i32 noundef %24) #7
  store ptr %25, ptr %6, align 8
  %26 = load ptr, ptr %6, align 8
  %27 = icmp ne ptr %26, null
  br i1 %27, label %28, label %31

28:                                               ; preds = %16
  %29 = load ptr, ptr %6, align 8
  %30 = getelementptr inbounds i8, ptr %29, i32 1
  store ptr %30, ptr %6, align 8
  store i8 0, ptr %29, align 1
  br label %44

31:                                               ; preds = %16
  %32 = load i64, ptr %10, align 8
  store i64 %32, ptr %11, align 8
  br label %33

33:                                               ; preds = %37, %31
  %34 = load i64, ptr %11, align 8
  %35 = load i64, ptr %8, align 8
  %36 = icmp ult i64 %34, %35
  br i1 %36, label %37, label %42

37:                                               ; preds = %33
  %38 = load ptr, ptr %9, align 8
  %39 = load i64, ptr %11, align 8
  %40 = add i64 %39, 1
  store i64 %40, ptr %11, align 8
  %41 = getelementptr inbounds ptr, ptr %38, i64 %39
  store ptr null, ptr %41, align 8
  br label %33

42:                                               ; preds = %33
  %43 = load i64, ptr %10, align 8
  store i64 %43, ptr %5, align 8
  br label %47

44:                                               ; preds = %28
  br label %12

45:                                               ; preds = %12
  %46 = load i64, ptr %10, align 8
  store i64 %46, ptr %5, align 8
  br label %47

47:                                               ; preds = %45, %42
  %48 = load i64, ptr %5, align 8
  ret i64 %48
}