; Function Attrs: nofree nounwind memory(readwrite, inaccessiblemem: none) uwtable
define i64 @cli_strtokenize(ptr noundef %0, i8 noundef signext %1, i64 noundef %2, ptr nocapture noundef writeonly %3) local_unnamed_addr #16 {
  %.not27 = icmp eq i64 %2, 0
  br i1 %.not27, label %.loopexit, label %.lr.ph

.lr.ph:                                           ; preds = %4
  %5 = sext i8 %1 to i32
  br label %6

6:                                                ; preds = %.lr.ph, %17
  %.01624 = phi i64 [ 0, %.lr.ph ], [ %7, %17 ]
  %.01823 = phi ptr [ %0, %.lr.ph ], [ %18, %17 ]
  %7 = add nuw i64 %.01624, 1
  %8 = getelementptr inbounds ptr, ptr %3, i64 %.01624
  store ptr %.01823, ptr %8, align 8
  %9 = tail call ptr @strchr(ptr noundef nonnull dereferenceable(1) %.01823, i32 noundef %5) #26
  %.not = icmp eq ptr %9, null
  br i1 %.not, label %.preheader, label %17

.preheader:                                       ; preds = %6
  %10 = icmp ult i64 %7, %2
  br i1 %10, label %.lr.ph26.preheader, label %.loopexit

.lr.ph26.preheader:                               ; preds = %.preheader
  %11 = shl i64 %.01624, 3
  %12 = getelementptr i8, ptr %3, i64 %11
  %scevgep = getelementptr i8, ptr %12, i64 8
  %13 = shl i64 %2, 3
  %14 = add i64 %13, -8
  %15 = shl i64 %.01624, 3
  %16 = sub i64 %14, %15
  tail call void @llvm.memset.p0.i64(ptr align 8 %scevgep, i8 0, i64 %16, i1 false)
  br label %.loopexit

17:                                               ; preds = %6
  %18 = getelementptr inbounds i8, ptr %9, i64 1
  store i8 0, ptr %9, align 1
  %exitcond.not = icmp eq i64 %7, %2
  br i1 %exitcond.not, label %.loopexit, label %6

.loopexit:                                        ; preds = %17, %.lr.ph26.preheader, %4, %.preheader
  %.017 = phi i64 [ %7, %.preheader ], [ 0, %4 ], [ %7, %.lr.ph26.preheader ], [ %2, %17 ]
  ret i64 %.017
}